target datalayout = "e-m:e-p270:32:32-p271:32:32-p272:64:64-i64:64-i128:128-f80:128-n8:16:32:64-S128"
target triple = "x86_64-pc-linux-gnu"

%struct.Aig_Obj_t_ = type { %union.anon, ptr, ptr, i64, i32, i32, %union.anon.0 }
%union.anon = type { ptr }
%union.anon.0 = type { ptr }
%struct.Fra_Sml_t_ = type { ptr, i32, i32, i32, i32, i32, i32, i32, i32, [0 x i32] }

; Function Attrs: inlinehint nounwind uwtable
define internal ptr @Fra_ObjSim(ptr noundef %0, i32 noundef %1) #2 {
  %3 = alloca ptr, align 8
  %4 = alloca i32, align 4
  store ptr %0, ptr %3, align 8, !tbaa !48
  store i32 %1, ptr %4, align 4, !tbaa !21
  %5 = load ptr, ptr %3, align 8, !tbaa !48
  %6 = getelementptr inbounds nuw %struct.Fra_Sml_t_, ptr %5, i32 0, i32 9
  %7 = getelementptr inbounds [0 x i32], ptr %6, i64 0, i64 0
  %8 = load ptr, ptr %3, align 8, !tbaa !48
  %9 = getelementptr inbounds nuw %struct.Fra_Sml_t_, ptr %8, i32 0, i32 4
  %10 = load i32, ptr %9, align 4, !tbaa !52
  %11 = load i32, ptr %4, align 4, !tbaa !21
  %12 = mul nsw i32 %10, %11
  %13 = sext i32 %12 to i64
  %14 = getelementptr inbounds i32, ptr %7, i64 %13
  ret ptr %14
}

; Function Attrs: nounwind uwtable
define i32 @Fra_ClausSmlNodesAreImp(ptr noundef %0, ptr noundef %1, ptr noundef %2) #0 {
  %4 = alloca i32, align 4
  %5 = alloca ptr, align 8
  %6 = alloca ptr, align 8
  %7 = alloca ptr, align 8
  %8 = alloca ptr, align 8
  %9 = alloca ptr, align 8
  %10 = alloca i32, align 4
  %11 = alloca i32, align 4
  store ptr %0, ptr %5, align 8, !tbaa !48
  store ptr %1, ptr %6, align 8, !tbaa !23
  store ptr %2, ptr %7, align 8, !tbaa !23
  call void @llvm.lifetime.start.p0(i64 8, ptr %8) #11
  call void @llvm.lifetime.start.p0(i64 8, ptr %9) #11
  call void @llvm.lifetime.start.p0(i64 4, ptr %10) #11
  %12 = load ptr, ptr %5, align 8, !tbaa !48
  %13 = load ptr, ptr %6, align 8, !tbaa !23
  %14 = getelementptr inbounds nuw %struct.Aig_Obj_t_, ptr %13, i32 0, i32 5
  %15 = load i32, ptr %14, align 4, !tbaa !28
  %16 = call ptr @Fra_ObjSim(ptr noundef %12, i32 noundef %15)
  store ptr %16, ptr %8, align 8, !tbaa !42
  %17 = load ptr, ptr %5, align 8, !tbaa !48
  %18 = load ptr, ptr %7, align 8, !tbaa !23
  %19 = getelementptr inbounds nuw %struct.Aig_Obj_t_, ptr %18, i32 0, i32 5
  %20 = load i32, ptr %19, align 4, !tbaa !28
  %21 = call ptr @Fra_ObjSim(ptr noundef %17, i32 noundef %20)
  store ptr %21, ptr %9, align 8, !tbaa !42
  %22 = load ptr, ptr %5, align 8, !tbaa !48
  %23 = getelementptr inbounds nuw %struct.Fra_Sml_t_, ptr %22, i32 0, i32 5
  %24 = load i32, ptr %23, align 8, !tbaa !99
  store i32 %24, ptr %10, align 4, !tbaa !21
  br label %25

25:                                               ; preds = %47, %3
  %26 = load i32, ptr %10, align 4, !tbaa !21
  %27 = load ptr, ptr %5, align 8, !tbaa !48
  %28 = getelementptr inbounds nuw %struct.Fra_Sml_t_, ptr %27, i32 0, i32 4
  %29 = load i32, ptr %28, align 4, !tbaa !52
  %30 = icmp slt i32 %26, %29
  br i1 %30, label %31, label %50

31:                                               ; preds = %25
  %32 = load ptr, ptr %8, align 8, !tbaa !42
  %33 = load i32, ptr %10, align 4, !tbaa !21
  %34 = sext i32 %33 to i64
  %35 = getelementptr inbounds i32, ptr %32, i64 %34
  %36 = load i32, ptr %35, align 4, !tbaa !21
  %37 = load ptr, ptr %9, align 8, !tbaa !42
  %38 = load i32, ptr %10, align 4, !tbaa !21
  %39 = sext i32 %38 to i64
  %40 = getelementptr inbounds i32, ptr %37, i64 %39
  %41 = load i32, ptr %40, align 4, !tbaa !21
  %42 = xor i32 %41, -1
  %43 = and i32 %36, %42
  %44 = icmp ne i32 %43, 0
  br i1 %44, label %45, label %46

45:                                               ; preds = %31
  store i32 0, ptr %4, align 4
  store i32 1, ptr %11, align 4
  br label %51

46:                                               ; preds = %31
  br label %47

47:                                               ; preds = %46
  %48 = load i32, ptr %10, align 4, !tbaa !21
  %49 = add nsw i32 %48, 1
  store i32 %49, ptr %10, align 4, !tbaa !21
  br label %25, !llvm.loop !101

50:                                               ; preds = %25
  store i32 1, ptr %4, align 4
  store i32 1, ptr %11, align 4
  br label %51

51:                                               ; preds = %50, %45
  call void @llvm.lifetime.end.p0(i64 4, ptr %10) #11
  call void @llvm.lifetime.end.p0(i64 8, ptr %9) #11
  call void @llvm.lifetime.end.p0(i64 8, ptr %8) #11
  %52 = load i32, ptr %4, align 4
  ret i32 %52
}